target datalayout = "e-m:e-p270:32:32-p271:32:32-p272:64:64-i64:64-i128:128-f80:128-n8:16:32:64-S128"
target triple = "x86_64-pc-linux-gnu"

%struct.PJconsts = type { ptr, ptr, ptr, ptr, ptr, ptr, ptr, ptr, ptr, ptr, ptr, ptr, i32, ptr, ptr, ptr, ptr, ptr, ptr, ptr, ptr, double, double, double, double, double, double, double, double, double, double, double, double, double, double, double, double, double, double, double, double, double, double, i32, i32, i32, i32, i32, i32, i32, i32, i32, i32, i32, ptr, ptr, ptr, ptr, ptr, ptr, double, double, double, double, double, double, double, double, double, double, double, i32, [7 x double], i32, ptr, ptr, double, double, i32, [4 x i8], %"class.std::shared_ptr", i8, double, i8, %"class.std::__cxx11::basic_string", %"class.std::__cxx11::basic_string", %"class.std::__cxx11::basic_string", i8, %"class.std::vector", i32, %"class.std::vector.3", i32, i8, i8, i8, ptr }
%"class.std::shared_ptr" = type { %"class.std::__shared_ptr" }
%"class.std::__shared_ptr" = type { ptr, %"class.std::__shared_count" }
%"class.std::__shared_count" = type { ptr }
%"class.std::__cxx11::basic_string" = type { %"struct.std::__cxx11::basic_string<char>::_Alloc_hider", i64, %union.anon }
%"struct.std::__cxx11::basic_string<char>::_Alloc_hider" = type { ptr }
%union.anon = type { i64, [8 x i8] }
%"class.std::vector" = type { %"struct.std::_Vector_base" }
%"struct.std::_Vector_base" = type { %"struct.std::_Vector_base<osgeo::proj::operation::GridDescription, std::allocator<osgeo::proj::operation::GridDescription>>::_Vector_impl" }
%"struct.std::_Vector_base<osgeo::proj::operation::GridDescription, std::allocator<osgeo::proj::operation::GridDescription>>::_Vector_impl" = type { %"struct.std::_Vector_base<osgeo::proj::operation::GridDescription, std::allocator<osgeo::proj::operation::GridDescription>>::_Vector_impl_data" }
%"struct.std::_Vector_base<osgeo::proj::operation::GridDescription, std::allocator<osgeo::proj::operation::GridDescription>>::_Vector_impl_data" = type { ptr, ptr, ptr }
%"class.std::vector.3" = type { %"struct.std::_Vector_base.4" }
%"struct.std::_Vector_base.4" = type { %"struct.std::_Vector_base<PJCoordOperation, std::allocator<PJCoordOperation>>::_Vector_impl" }
%"struct.std::_Vector_base<PJCoordOperation, std::allocator<PJCoordOperation>>::_Vector_impl" = type { %"struct.std::_Vector_base<PJCoordOperation, std::allocator<PJCoordOperation>>::_Vector_impl_data" }
%"struct.std::_Vector_base<PJCoordOperation, std::allocator<PJCoordOperation>>::_Vector_impl_data" = type { ptr, ptr, ptr }
%"struct.(anonymous namespace)::pj_oea" = type { double, double, double, double, double, double, double, double, double, double, double }
%struct.PJ_XY = type { double, double }
%struct.PJ_LP = type { double, double }

; Function Attrs: mustprogress uwtable
define internal { double, double } @_ZL13oea_s_inverse5PJ_XYP8PJconsts(double %0, double %1, ptr noundef %2) #0 {
  %4 = alloca %struct.PJ_LP, align 8
  %5 = alloca %struct.PJ_XY, align 8
  %6 = alloca ptr, align 8
  %7 = alloca ptr, align 8
  %8 = alloca double, align 8
  %9 = alloca double, align 8
  %10 = alloca double, align 8
  %11 = alloca double, align 8
  %12 = alloca double, align 8
  %13 = alloca double, align 8
  %14 = alloca double, align 8
  %15 = alloca double, align 8
  %16 = alloca double, align 8
  %17 = getelementptr inbounds nuw { double, double }, ptr %5, i32 0, i32 0
  store double %0, ptr %17, align 8
  %18 = getelementptr inbounds nuw { double, double }, ptr %5, i32 0, i32 1
  store double %1, ptr %18, align 8
  store ptr %2, ptr %6, align 8, !tbaa !3
  call void @llvm.memset.p0.i64(ptr align 8 %4, i8 0, i64 16, i1 false)
  call void @llvm.lifetime.start.p0(i64 8, ptr %7) #7
  %19 = load ptr, ptr %6, align 8, !tbaa !3
  %20 = getelementptr inbounds nuw %struct.PJconsts, ptr %19, i32 0, i32 11
  %21 = load ptr, ptr %20, align 8, !tbaa !43
  store ptr %21, ptr %7, align 8, !tbaa !41
  call void @llvm.lifetime.start.p0(i64 8, ptr %8) #7
  %22 = load ptr, ptr %7, align 8, !tbaa !41
  %23 = getelementptr inbounds nuw %"struct.(anonymous namespace)::pj_oea", ptr %22, i32 0, i32 8
  %24 = load double, ptr %23, align 8, !tbaa !60
  %25 = load ptr, ptr %6, align 8, !tbaa !3
  %26 = getelementptr inbounds nuw %struct.PJconsts, ptr %25, i32 0, i32 0
  %27 = load ptr, ptr %26, align 8, !tbaa !44
  %28 = getelementptr inbounds nuw %struct.PJ_XY, ptr %5, i32 0, i32 1
  %29 = load double, ptr %28, align 8, !tbaa !68
  %30 = load ptr, ptr %7, align 8, !tbaa !41
  %31 = getelementptr inbounds nuw %"struct.(anonymous namespace)::pj_oea", ptr %30, i32 0, i32 6
  %32 = load double, ptr %31, align 8, !tbaa !55
  %33 = fmul double %29, %32
  %34 = call noundef double @_Z5aasinP6pj_ctxd(ptr noundef %27, double noundef %33)
  %35 = fmul double %24, %34
  store double %35, ptr %8, align 8, !tbaa !66
  call void @llvm.lifetime.start.p0(i64 8, ptr %9) #7
  %36 = load ptr, ptr %7, align 8, !tbaa !41
  %37 = getelementptr inbounds nuw %"struct.(anonymous namespace)::pj_oea", ptr %36, i32 0, i32 7
  %38 = load double, ptr %37, align 8, !tbaa !59
  %39 = load ptr, ptr %6, align 8, !tbaa !3
  %40 = getelementptr inbounds nuw %struct.PJconsts, ptr %39, i32 0, i32 0
  %41 = load ptr, ptr %40, align 8, !tbaa !44
  %42 = getelementptr inbounds nuw %struct.PJ_XY, ptr %5, i32 0, i32 0
  %43 = load double, ptr %42, align 8, !tbaa !70
  %44 = load ptr, ptr %7, align 8, !tbaa !41
  %45 = getelementptr inbounds nuw %"struct.(anonymous namespace)::pj_oea", ptr %44, i32 0, i32 5
  %46 = load double, ptr %45, align 8, !tbaa !56
  %47 = fmul double %43, %46
  %48 = load double, ptr %8, align 8, !tbaa !66
  %49 = load ptr, ptr %7, align 8, !tbaa !41
  %50 = getelementptr inbounds nuw %"struct.(anonymous namespace)::pj_oea", ptr %49, i32 0, i32 4
  %51 = load double, ptr %50, align 8, !tbaa !57
  %52 = fmul double %48, %51
  %53 = call double @cos(double noundef %52) #7, !tbaa !52
  %54 = fmul double %47, %53
  %55 = load double, ptr %8, align 8, !tbaa !66
  %56 = call double @cos(double noundef %55) #7, !tbaa !52
  %57 = fdiv double %54, %56
  %58 = call noundef double @_Z5aasinP6pj_ctxd(ptr noundef %41, double noundef %57)
  %59 = fmul double %38, %58
  store double %59, ptr %9, align 8, !tbaa !66
  call void @llvm.lifetime.start.p0(i64 8, ptr %10) #7
  %60 = load double, ptr %9, align 8, !tbaa !66
  %61 = call double @sin(double noundef %60) #7, !tbaa !52
  %62 = fmul double 2.000000e+00, %61
  store double %62, ptr %10, align 8, !tbaa !66
  call void @llvm.lifetime.start.p0(i64 8, ptr %11) #7
  %63 = load double, ptr %8, align 8, !tbaa !66
  %64 = call double @sin(double noundef %63) #7, !tbaa !52
  %65 = fmul double 2.000000e+00, %64
  %66 = load double, ptr %9, align 8, !tbaa !66
  %67 = load ptr, ptr %7, align 8, !tbaa !41
  %68 = getelementptr inbounds nuw %"struct.(anonymous namespace)::pj_oea", ptr %67, i32 0, i32 3
  %69 = load double, ptr %68, align 8, !tbaa !58
  %70 = fmul double %66, %69
  %71 = call double @cos(double noundef %70) #7, !tbaa !52
  %72 = fmul double %65, %71
  %73 = load double, ptr %9, align 8, !tbaa !66
  %74 = call double @cos(double noundef %73) #7, !tbaa !52
  %75 = fdiv double %72, %74
  store double %75, ptr %11, align 8, !tbaa !66
  call void @llvm.lifetime.start.p0(i64 8, ptr %12) #7
  %76 = load double, ptr %10, align 8, !tbaa !66
  %77 = load double, ptr %11, align 8, !tbaa !66
  %78 = call noundef double @_Z6aatan2dd(double noundef %76, double noundef %77)
  %79 = load ptr, ptr %7, align 8, !tbaa !41
  %80 = getelementptr inbounds nuw %"struct.(anonymous namespace)::pj_oea", ptr %79, i32 0, i32 0
  %81 = load double, ptr %80, align 8, !tbaa !50
  %82 = fsub double %78, %81
  store double %82, ptr %12, align 8, !tbaa !66
  call void @llvm.lifetime.start.p0(i64 8, ptr %13) #7
  %83 = load double, ptr %12, align 8, !tbaa !66
  %84 = call double @cos(double noundef %83) #7, !tbaa !52
  store double %84, ptr %13, align 8, !tbaa !66
  call void @llvm.lifetime.start.p0(i64 8, ptr %14) #7
  %85 = load ptr, ptr %6, align 8, !tbaa !3
  %86 = getelementptr inbounds nuw %struct.PJconsts, ptr %85, i32 0, i32 0
  %87 = load ptr, ptr %86, align 8, !tbaa !44
  %88 = load double, ptr %10, align 8, !tbaa !66
  %89 = load double, ptr %11, align 8, !tbaa !66
  %90 = call double @hypot(double noundef %88, double noundef %89) #7, !tbaa !52
  %91 = fmul double 5.000000e-01, %90
  %92 = call noundef double @_Z5aasinP6pj_ctxd(ptr noundef %87, double noundef %91)
  %93 = fmul double 2.000000e+00, %92
  store double %93, ptr %14, align 8, !tbaa !66
  call void @llvm.lifetime.start.p0(i64 8, ptr %15) #7
  %94 = load double, ptr %14, align 8, !tbaa !66
  %95 = call double @sin(double noundef %94) #7, !tbaa !52
  store double %95, ptr %15, align 8, !tbaa !66
  call void @llvm.lifetime.start.p0(i64 8, ptr %16) #7
  %96 = load double, ptr %14, align 8, !tbaa !66
  %97 = call double @cos(double noundef %96) #7, !tbaa !52
  store double %97, ptr %16, align 8, !tbaa !66
  %98 = load ptr, ptr %6, align 8, !tbaa !3
  %99 = getelementptr inbounds nuw %struct.PJconsts, ptr %98, i32 0, i32 0
  %100 = load ptr, ptr %99, align 8, !tbaa !44
  %101 = load ptr, ptr %7, align 8, !tbaa !41
  %102 = getelementptr inbounds nuw %"struct.(anonymous namespace)::pj_oea", ptr %101, i32 0, i32 10
  %103 = load double, ptr %102, align 8, !tbaa !53
  %104 = load double, ptr %16, align 8, !tbaa !66
  %105 = load ptr, ptr %7, align 8, !tbaa !41
  %106 = getelementptr inbounds nuw %"struct.(anonymous namespace)::pj_oea", ptr %105, i32 0, i32 9
  %107 = load double, ptr %106, align 8, !tbaa !54
  %108 = load double, ptr %15, align 8, !tbaa !66
  %109 = fmul double %107, %108
  %110 = load double, ptr %13, align 8, !tbaa !66
  %111 = fmul double %109, %110
  %112 = call double @llvm.fmuladd.f64(double %103, double %104, double %111)
  %113 = call noundef double @_Z5aasinP6pj_ctxd(ptr noundef %100, double noundef %112)
  %114 = getelementptr inbounds nuw %struct.PJ_LP, ptr %4, i32 0, i32 1
  store double %113, ptr %114, align 8, !tbaa !64
  %115 = load double, ptr %15, align 8, !tbaa !66
  %116 = load double, ptr %12, align 8, !tbaa !66
  %117 = call double @sin(double noundef %116) #7, !tbaa !52
  %118 = fmul double %115, %117
  %119 = load ptr, ptr %7, align 8, !tbaa !41
  %120 = getelementptr inbounds nuw %"struct.(anonymous namespace)::pj_oea", ptr %119, i32 0, i32 9
  %121 = load double, ptr %120, align 8, !tbaa !54
  %122 = load double, ptr %16, align 8, !tbaa !66
  %123 = load ptr, ptr %7, align 8, !tbaa !41
  %124 = getelementptr inbounds nuw %"struct.(anonymous namespace)::pj_oea", ptr %123, i32 0, i32 10
  %125 = load double, ptr %124, align 8, !tbaa !53
  %126 = load double, ptr %15, align 8, !tbaa !66
  %127 = fmul double %125, %126
  %128 = load double, ptr %13, align 8, !tbaa !66
  %129 = fmul double %127, %128
  %130 = fneg double %129
  %131 = call double @llvm.fmuladd.f64(double %121, double %122, double %130)
  %132 = call noundef double @_Z6aatan2dd(double noundef %118, double noundef %131)
  %133 = getelementptr inbounds nuw %struct.PJ_LP, ptr %4, i32 0, i32 0
  store double %132, ptr %133, align 8, !tbaa !67
  call void @llvm.lifetime.end.p0(i64 8, ptr %16) #7
  call void @llvm.lifetime.end.p0(i64 8, ptr %15) #7
  call void @llvm.lifetime.end.p0(i64 8, ptr %14) #7
  call void @llvm.lifetime.end.p0(i64 8, ptr %13) #7
  call void @llvm.lifetime.end.p0(i64 8, ptr %12) #7
  call void @llvm.lifetime.end.p0(i64 8, ptr %11) #7
  call void @llvm.lifetime.end.p0(i64 8, ptr %10) #7
  call void @llvm.lifetime.end.p0(i64 8, ptr %9) #7
  call void @llvm.lifetime.end.p0(i64 8, ptr %8) #7
  call void @llvm.lifetime.end.p0(i64 8, ptr %7) #7
  %134 = load { double, double }, ptr %4, align 8
  ret { double, double } %134
}