; Function Attrs: mustprogress uwtable
define internal { double, double } @_ZL13oea_s_inverse5PJ_XYP8PJconsts(double %0, double %1, ptr noundef readonly captures(none) %2) #0 {
  %4 = getelementptr inbounds nuw i8, ptr %2, i64 88
  %5 = load ptr, ptr %4, align 8, !tbaa !40
  %6 = getelementptr inbounds nuw i8, ptr %5, i64 64
  %7 = load double, ptr %6, align 8, !tbaa !56
  %8 = load ptr, ptr %2, align 8, !tbaa !41
  %9 = getelementptr inbounds nuw i8, ptr %5, i64 48
  %10 = load double, ptr %9, align 8, !tbaa !51
  %11 = fmul double %1, %10
  %12 = tail call noundef double @_Z5aasinP6pj_ctxd(ptr noundef %8, double noundef %11)
  %13 = fmul double %7, %12
  %14 = getelementptr inbounds nuw i8, ptr %5, i64 56
  %15 = load double, ptr %14, align 8, !tbaa !55
  %16 = load ptr, ptr %2, align 8, !tbaa !41
  %17 = getelementptr inbounds nuw i8, ptr %5, i64 40
  %18 = load double, ptr %17, align 8, !tbaa !52
  %19 = fmul double %0, %18
  %20 = getelementptr inbounds nuw i8, ptr %5, i64 32
  %21 = load double, ptr %20, align 8, !tbaa !53
  %22 = fmul double %13, %21
  %23 = tail call double @cos(double noundef %22) #6, !tbaa !48
  %24 = fmul double %19, %23
  %25 = tail call double @cos(double noundef %13) #6, !tbaa !48
  %26 = fdiv double %24, %25
  %27 = tail call noundef double @_Z5aasinP6pj_ctxd(ptr noundef %16, double noundef %26)
  %28 = fmul double %15, %27
  %29 = tail call double @sin(double noundef %28) #6, !tbaa !48
  %30 = fmul double %29, 2.000000e+00
  %31 = tail call double @sin(double noundef %13) #6, !tbaa !48
  %32 = fmul double %31, 2.000000e+00
  %33 = getelementptr inbounds nuw i8, ptr %5, i64 24
  %34 = load double, ptr %33, align 8, !tbaa !54
  %35 = fmul double %28, %34
  %36 = tail call double @cos(double noundef %35) #6, !tbaa !48
  %37 = fmul double %32, %36
  %38 = tail call double @cos(double noundef %28) #6, !tbaa !48
  %39 = fdiv double %37, %38
  %40 = tail call noundef double @_Z6aatan2dd(double noundef %30, double noundef %39)
  %41 = load double, ptr %5, align 8, !tbaa !46
  %42 = fsub double %40, %41
  %43 = tail call double @cos(double noundef %42) #6, !tbaa !48
  %44 = load ptr, ptr %2, align 8, !tbaa !41
  %45 = tail call double @hypot(double noundef %30, double noundef %39) #6, !tbaa !48
  %46 = fmul double %45, 5.000000e-01
  %47 = tail call noundef double @_Z5aasinP6pj_ctxd(ptr noundef %44, double noundef %46)
  %48 = fmul double %47, 2.000000e+00
  %49 = tail call double @sin(double noundef %48) #6, !tbaa !48
  %50 = tail call double @cos(double noundef %48) #6, !tbaa !48
  %51 = load ptr, ptr %2, align 8, !tbaa !41
  %52 = getelementptr inbounds nuw i8, ptr %5, i64 80
  %53 = load double, ptr %52, align 8, !tbaa !49
  %54 = getelementptr inbounds nuw i8, ptr %5, i64 72
  %55 = load double, ptr %54, align 8, !tbaa !50
  %56 = fmul double %49, %55
  %57 = fmul double %43, %56
  %58 = tail call double @llvm.fmuladd.f64(double %53, double %50, double %57)
  %59 = tail call noundef double @_Z5aasinP6pj_ctxd(ptr noundef %51, double noundef %58)
  %60 = tail call double @sin(double noundef %42) #6, !tbaa !48
  %61 = fmul double %49, %60
  %62 = load double, ptr %54, align 8, !tbaa !50
  %63 = load double, ptr %52, align 8, !tbaa !49
  %64 = fmul double %49, %63
  %65 = fneg double %43
  %66 = fmul double %64, %65
  %67 = tail call double @llvm.fmuladd.f64(double %62, double %50, double %66)
  %68 = tail call noundef double @_Z6aatan2dd(double noundef %61, double noundef %67)
  %.fca.0.insert = insertvalue { double, double } poison, double %68, 0
  %.fca.1.insert = insertvalue { double, double } %.fca.0.insert, double %59, 1
  ret { double, double } %.fca.1.insert
}